; Function Attrs: mustprogress nounwind uwtable
define dso_local void @_ZN4llvm15DwarfExpression14emitLegacyZExtEj(ptr noundef nonnull align 8 dereferenceable(88) %0, i32 noundef %1) local_unnamed_addr #0 align 2 {
  %3 = icmp ult i32 %1, 35
  %4 = load ptr, ptr %0, align 8
  %5 = load ptr, ptr %4, align 8
  br i1 %3, label %6, label %12

6:                                                ; preds = %2
  tail call void %5(ptr noundef nonnull align 8 dereferenceable(88) %0, i8 noundef zeroext 16, ptr noundef null) #13
  %7 = zext nneg i32 %1 to i64
  %notmask = shl nsw i64 -1, %7
  %8 = xor i64 %notmask, -1
  %9 = load ptr, ptr %0, align 8
  %10 = getelementptr inbounds i8, ptr %9, i64 16
  %11 = load ptr, ptr %10, align 8
  tail call void %11(ptr noundef nonnull align 8 dereferenceable(88) %0, i64 noundef %8) #13
  br label %25

12:                                               ; preds = %2
  tail call void %5(ptr noundef nonnull align 8 dereferenceable(88) %0, i8 noundef zeroext 49, ptr noundef null) #13
  %13 = load ptr, ptr %0, align 8
  %14 = load ptr, ptr %13, align 8
  tail call void %14(ptr noundef nonnull align 8 dereferenceable(88) %0, i8 noundef zeroext 16, ptr noundef null) #13
  %15 = zext i32 %1 to i64
  %16 = load ptr, ptr %0, align 8
  %17 = getelementptr inbounds i8, ptr %16, i64 16
  %18 = load ptr, ptr %17, align 8
  tail call void %18(ptr noundef nonnull align 8 dereferenceable(88) %0, i64 noundef %15) #13
  %19 = load ptr, ptr %0, align 8
  %20 = load ptr, ptr %19, align 8
  tail call void %20(ptr noundef nonnull align 8 dereferenceable(88) %0, i8 noundef zeroext 36, ptr noundef null) #13
  %21 = load ptr, ptr %0, align 8
  %22 = load ptr, ptr %21, align 8
  tail call void %22(ptr noundef nonnull align 8 dereferenceable(88) %0, i8 noundef zeroext 49, ptr noundef null) #13
  %23 = load ptr, ptr %0, align 8
  %24 = load ptr, ptr %23, align 8
  tail call void %24(ptr noundef nonnull align 8 dereferenceable(88) %0, i8 noundef zeroext 28, ptr noundef null) #13
  br label %25

25:                                               ; preds = %12, %6
  %26 = load ptr, ptr %0, align 8
  %27 = load ptr, ptr %26, align 8
  tail call void %27(ptr noundef nonnull align 8 dereferenceable(88) %0, i8 noundef zeroext 26, ptr noundef null) #13
  ret void
}